; Function Attrs: mustprogress nounwind uwtable
define void @_ZN3gmx6UpdateD2Ev(ptr nocapture noundef nonnull align 8 dereferenceable(8) %0) unnamed_addr #4 align 2 personality ptr @__gxx_personality_v0 {
  %2 = load ptr, ptr %0, align 8
  %.not.i = icmp eq ptr %2, null
  br i1 %.not.i, label %_ZNSt10unique_ptrIN3gmx6Update4ImplESt14default_deleteIS2_EED2Ev.exit, label %3

3:                                                ; preds = %1
  %4 = getelementptr inbounds i8, ptr %2, i64 192
  %5 = load ptr, ptr %4, align 8
  %.not.i.i.i.i.i.i.i = icmp eq ptr %5, null
  br i1 %.not.i.i.i.i.i.i.i, label %_ZNKSt14default_deleteIN3gmx6Update4ImplEEclEPS2_.exit.i, label %6

6:                                                ; preds = %3
  invoke void @_ZN3gmx23AlignedAllocationPolicy4freeEPv(ptr noundef nonnull %5)
          to label %_ZNKSt14default_deleteIN3gmx6Update4ImplEEclEPS2_.exit.i unwind label %7

7:                                                ; preds = %6
  %8 = landingpad { ptr, i32 }
          catch ptr null
  %9 = extractvalue { ptr, i32 } %8, 0
  tail call void @__clang_call_terminate(ptr %9) #27
  unreachable

_ZNKSt14default_deleteIN3gmx6Update4ImplEEclEPS2_.exit.i: ; preds = %6, %3
  %10 = getelementptr inbounds i8, ptr %2, i64 56
  tail call void @_ZN12gmx_stochd_tD2Ev(ptr noundef nonnull align 8 dereferenceable(136) %10) #17
  tail call void @_ZdlPv(ptr noundef nonnull %2) #26
  br label %_ZNSt10unique_ptrIN3gmx6Update4ImplESt14default_deleteIS2_EED2Ev.exit

_ZNSt10unique_ptrIN3gmx6Update4ImplESt14default_deleteIS2_EED2Ev.exit: ; preds = %1, %_ZNKSt14default_deleteIN3gmx6Update4ImplEEclEPS2_.exit.i
  store ptr null, ptr %0, align 8
  ret void
}